target datalayout = "e-m:e-p270:32:32-p271:32:32-p272:64:64-i64:64-i128:128-f80:128-n8:16:32:64-S128"
target triple = "x86_64-pc-linux-gnu"

%"class.cv::MatExpr" = type { ptr, i32, %"class.cv::Mat", %"class.cv::Mat", %"class.cv::Mat", double, double, %"class.cv::Scalar_" }
%"class.cv::Mat" = type { i32, i32, i32, i32, ptr, ptr, ptr, ptr, ptr, ptr, %"struct.cv::MatSize", %"struct.cv::MatStep" }
%"struct.cv::MatSize" = type { ptr }
%"struct.cv::MatStep" = type { ptr, [2 x i64] }
%"class.cv::Scalar_" = type { %"class.cv::Vec" }
%"class.cv::Vec" = type { %"class.cv::Matx" }
%"class.cv::Matx" = type { [4 x double] }
%"struct.cv::detail::CameraParams" = type { double, double, double, double, %"class.cv::Mat", %"class.cv::Mat" }
%"class.cv::Mat_" = type { %"class.cv::Mat" }

; Function Attrs: mustprogress nounwind uwtable
define linkonce_odr hidden void @_ZN2cv4Mat_IdED2Ev(ptr noundef nonnull align 8 dereferenceable(96) %0) unnamed_addr #5 comdat align 2 {
  %2 = alloca ptr, align 8
  store ptr %0, ptr %2, align 8
  %3 = load ptr, ptr %2, align 8
  call void @_ZN2cv3MatD2Ev(ptr noundef nonnull align 8 dereferenceable(96) %3) #3
  ret void
}

; Function Attrs: mustprogress nounwind uwtable
define linkonce_odr hidden noundef nonnull align 8 dereferenceable(8) ptr @_ZN2cv4Mat_IdEclEii(ptr noundef nonnull align 8 dereferenceable(96) %0, i32 noundef %1, i32 noundef %2) #5 comdat align 2 {
  %4 = alloca ptr, align 8
  %5 = alloca i32, align 4
  %6 = alloca i32, align 4
  store ptr %0, ptr %4, align 8
  store i32 %1, ptr %5, align 4
  store i32 %2, ptr %6, align 4
  %7 = load ptr, ptr %4, align 8
  %8 = getelementptr inbounds %"class.cv::Mat", ptr %7, i32 0, i32 4
  %9 = load ptr, ptr %8, align 8
  %10 = getelementptr inbounds %"class.cv::Mat", ptr %7, i32 0, i32 11
  %11 = getelementptr inbounds %"struct.cv::MatStep", ptr %10, i32 0, i32 0
  %12 = load ptr, ptr %11, align 8
  %13 = getelementptr inbounds i64, ptr %12, i64 0
  %14 = load i64, ptr %13, align 8
  %15 = load i32, ptr %5, align 4
  %16 = sext i32 %15 to i64
  %17 = mul i64 %14, %16
  %18 = getelementptr inbounds i8, ptr %9, i64 %17
  %19 = load i32, ptr %6, align 4
  %20 = sext i32 %19 to i64
  %21 = getelementptr inbounds double, ptr %18, i64 %20
  ret ptr %21
}

; Function Attrs: mustprogress uwtable
define void @_ZNK2cv6detail12CameraParams1KEv(ptr dead_on_unwind noalias writable sret(%"class.cv::Mat") align 8 %0, ptr noundef nonnull align 8 dereferenceable(224) %1) #4 align 2 personality ptr @__gxx_personality_v0 {
  %3 = alloca ptr, align 8
  %4 = alloca ptr, align 8
  %5 = alloca %"class.cv::Mat_", align 8
  %6 = alloca %"class.cv::MatExpr", align 8
  %7 = alloca ptr, align 8
  %8 = alloca i32, align 4
  store ptr %0, ptr %3, align 8
  store ptr %1, ptr %4, align 8
  %9 = load ptr, ptr %4, align 8
  call void @_ZN2cv3Mat3eyeEiii(ptr dead_on_unwind writable sret(%"class.cv::MatExpr") align 8 %6, i32 noundef 3, i32 noundef 3, i32 noundef 6)
  invoke void @_ZN2cv4Mat_IdEC2EONS_7MatExprE(ptr noundef nonnull align 8 dereferenceable(96) %5, ptr noundef nonnull align 8 dereferenceable(352) %6)
          to label %10 unwind label %31

10:                                               ; preds = %2
  call void @_ZN2cv7MatExprD2Ev(ptr noundef nonnull align 8 dereferenceable(352) %6) #3
  %11 = getelementptr inbounds %"struct.cv::detail::CameraParams", ptr %9, i32 0, i32 0
  %12 = load double, ptr %11, align 8
  %13 = invoke noundef nonnull align 8 dereferenceable(8) ptr @_ZN2cv4Mat_IdEclEii(ptr noundef nonnull align 8 dereferenceable(96) %5, i32 noundef 0, i32 noundef 0)
          to label %14 unwind label %35

14:                                               ; preds = %10
  store double %12, ptr %13, align 8
  %15 = getelementptr inbounds %"struct.cv::detail::CameraParams", ptr %9, i32 0, i32 2
  %16 = load double, ptr %15, align 8
  %17 = invoke noundef nonnull align 8 dereferenceable(8) ptr @_ZN2cv4Mat_IdEclEii(ptr noundef nonnull align 8 dereferenceable(96) %5, i32 noundef 0, i32 noundef 2)
          to label %18 unwind label %35

18:                                               ; preds = %14
  store double %16, ptr %17, align 8
  %19 = getelementptr inbounds %"struct.cv::detail::CameraParams", ptr %9, i32 0, i32 0
  %20 = load double, ptr %19, align 8
  %21 = getelementptr inbounds %"struct.cv::detail::CameraParams", ptr %9, i32 0, i32 1
  %22 = load double, ptr %21, align 8
  %23 = fmul double %20, %22
  %24 = invoke noundef nonnull align 8 dereferenceable(8) ptr @_ZN2cv4Mat_IdEclEii(ptr noundef nonnull align 8 dereferenceable(96) %5, i32 noundef 1, i32 noundef 1)
          to label %25 unwind label %35

25:                                               ; preds = %18
  store double %23, ptr %24, align 8
  %26 = getelementptr inbounds %"struct.cv::detail::CameraParams", ptr %9, i32 0, i32 3
  %27 = load double, ptr %26, align 8
  %28 = invoke noundef nonnull align 8 dereferenceable(8) ptr @_ZN2cv4Mat_IdEclEii(ptr noundef nonnull align 8 dereferenceable(96) %5, i32 noundef 1, i32 noundef 2)
          to label %29 unwind label %35

29:                                               ; preds = %25
  store double %27, ptr %28, align 8
  invoke void @_ZN2cv3MatC1ERKS0_(ptr noundef nonnull align 8 dereferenceable(96) %0, ptr noundef nonnull align 8 dereferenceable(96) %5)
          to label %30 unwind label %35

30:                                               ; preds = %29
  call void @_ZN2cv4Mat_IdED2Ev(ptr noundef nonnull align 8 dereferenceable(96) %5) #3
  ret void

31:                                               ; preds = %2
  %32 = landingpad { ptr, i32 }
          cleanup
  %33 = extractvalue { ptr, i32 } %32, 0
  store ptr %33, ptr %7, align 8
  %34 = extractvalue { ptr, i32 } %32, 1
  store i32 %34, ptr %8, align 4
  call void @_ZN2cv7MatExprD2Ev(ptr noundef nonnull align 8 dereferenceable(352) %6) #3
  br label %39

35:                                               ; preds = %29, %25, %18, %14, %10
  %36 = landingpad { ptr, i32 }
          cleanup
  %37 = extractvalue { ptr, i32 } %36, 0
  store ptr %37, ptr %7, align 8
  %38 = extractvalue { ptr, i32 } %36, 1
  store i32 %38, ptr %8, align 4
  call void @_ZN2cv4Mat_IdED2Ev(ptr noundef nonnull align 8 dereferenceable(96) %5) #3
  br label %39

39:                                               ; preds = %35, %31
  %40 = load ptr, ptr %7, align 8
  %41 = load i32, ptr %8, align 4
  %42 = insertvalue { ptr, i32 } poison, ptr %40, 0
  %43 = insertvalue { ptr, i32 } %42, i32 %41, 1
  resume { ptr, i32 } %43
}