; Function Attrs: mustprogress uwtable
define void @_ZNK2cv6detail12CameraParams1KEv(ptr dead_on_unwind noalias writable sret(%"class.cv::Mat") align 8 %0, ptr nocapture noundef nonnull readonly align 8 dereferenceable(224) %1) local_unnamed_addr #3 align 2 personality ptr @__gxx_personality_v0 {
  %3 = alloca %"class.cv::Mat_", align 8
  %4 = alloca %"class.cv::MatExpr", align 8
  call void @_ZN2cv3Mat3eyeEiii(ptr dead_on_unwind nonnull writable sret(%"class.cv::MatExpr") align 8 %4, i32 noundef 3, i32 noundef 3, i32 noundef 6)
  invoke void @_ZN2cv4Mat_IdEC2EONS_7MatExprE(ptr noundef nonnull align 8 dereferenceable(96) %3, ptr noundef nonnull align 8 dereferenceable(352) %4)
          to label %5 unwind label %34

5:                                                ; preds = %2
  %6 = getelementptr inbounds i8, ptr %4, i64 208
  call void @_ZN2cv3MatD1Ev(ptr noundef nonnull align 8 dereferenceable(96) %6) #7
  %7 = getelementptr inbounds i8, ptr %4, i64 112
  call void @_ZN2cv3MatD1Ev(ptr noundef nonnull align 8 dereferenceable(96) %7) #7
  %8 = getelementptr inbounds i8, ptr %4, i64 16
  call void @_ZN2cv3MatD1Ev(ptr noundef nonnull align 8 dereferenceable(96) %8) #7
  %9 = load double, ptr %1, align 8
  %10 = getelementptr inbounds i8, ptr %3, i64 16
  %11 = load ptr, ptr %10, align 8
  %12 = getelementptr inbounds i8, ptr %3, i64 72
  store double %9, ptr %11, align 8
  %13 = getelementptr inbounds i8, ptr %1, i64 16
  %14 = load double, ptr %13, align 8
  %15 = load ptr, ptr %10, align 8
  %16 = getelementptr inbounds i8, ptr %15, i64 16
  store double %14, ptr %16, align 8
  %17 = load double, ptr %1, align 8
  %18 = getelementptr inbounds i8, ptr %1, i64 8
  %19 = load double, ptr %18, align 8
  %20 = fmul double %17, %19
  %21 = load ptr, ptr %10, align 8
  %22 = load ptr, ptr %12, align 8
  %23 = load i64, ptr %22, align 8
  %24 = getelementptr inbounds i8, ptr %21, i64 %23
  %25 = getelementptr inbounds i8, ptr %24, i64 8
  store double %20, ptr %25, align 8
  %26 = getelementptr inbounds i8, ptr %1, i64 24
  %27 = load double, ptr %26, align 8
  %28 = load ptr, ptr %10, align 8
  %29 = load ptr, ptr %12, align 8
  %30 = load i64, ptr %29, align 8
  %31 = getelementptr inbounds i8, ptr %28, i64 %30
  %32 = getelementptr inbounds i8, ptr %31, i64 16
  store double %27, ptr %32, align 8
  invoke void @_ZN2cv3MatC1ERKS0_(ptr noundef nonnull align 8 dereferenceable(96) %0, ptr noundef nonnull align 8 dereferenceable(96) %3)
          to label %33 unwind label %36

33:                                               ; preds = %5
  call void @_ZN2cv3MatD2Ev(ptr noundef nonnull align 8 dereferenceable(96) %3) #7
  ret void

34:                                               ; preds = %2
  %35 = landingpad { ptr, i32 }
          cleanup
  call void @_ZN2cv7MatExprD2Ev(ptr noundef nonnull align 8 dereferenceable(352) %4) #7
  br label %38

36:                                               ; preds = %5
  %37 = landingpad { ptr, i32 }
          cleanup
  call void @_ZN2cv3MatD2Ev(ptr noundef nonnull align 8 dereferenceable(96) %3) #7
  br label %38

38:                                               ; preds = %36, %34
  %.pn = phi { ptr, i32 } [ %37, %36 ], [ %35, %34 ]
  resume { ptr, i32 } %.pn
}